target datalayout = "e-m:e-p270:32:32-p271:32:32-p272:64:64-i64:64-i128:128-f80:128-n8:16:32:64-S128"
target triple = "x86_64-pc-linux-gnu"

%struct.rb_ractor_struct = type { %struct.rb_ractor_pub, %struct.rb_ractor_sync, i64, %union.pthread_cond_t, %struct.anon.17, i64, i64, i64, i32, %struct.ccan_list_node, ptr, ptr, i64, i64, i64, i64, i64, i64, ptr }
%struct.rb_ractor_pub = type { i64, i32, %struct.rb_hook_list_struct }
%struct.rb_hook_list_struct = type { ptr, i32, i32, i8, i8 }
%struct.rb_ractor_sync = type { %union.pthread_mutex_t, i8, i8, %struct.rb_ractor_queue, %struct.rb_ractor_queue, %struct.rb_ractor_basket, %struct.ractor_wait }
%union.pthread_mutex_t = type { %struct.__pthread_mutex_s }
%struct.__pthread_mutex_s = type { i32, i32, i32, i32, i32, i16, i16, %struct.__pthread_internal_list }
%struct.__pthread_internal_list = type { ptr, ptr }
%struct.rb_ractor_queue = type { ptr, i32, i32, i32, i32, i32 }
%struct.rb_ractor_basket = type { %union.anon.13, i64, %union.anon.14 }
%union.anon.13 = type { i32 }
%union.anon.14 = type { %struct.anon.15 }
%struct.anon.15 = type { i64, i8 }
%struct.ractor_wait = type { i32, i32, ptr }
%union.pthread_cond_t = type { %struct.__pthread_cond_s }
%struct.__pthread_cond_s = type { %union.__atomic_wide_counter, %union.__atomic_wide_counter, [2 x i32], [2 x i32], i32, i32, [2 x i32] }
%union.__atomic_wide_counter = type { i64 }
%struct.anon.17 = type { %struct.ccan_list_head, i32, i32, i32, %struct.rb_thread_sched, ptr, ptr }
%struct.ccan_list_head = type { %struct.ccan_list_node }
%struct.rb_thread_sched = type { %union.pthread_mutex_t, ptr, i8, i8, i8, %struct.ccan_list_head, i32, %struct.ccan_list_node }
%struct.ccan_list_node = type { ptr, ptr }
%struct.receive_block_data = type { ptr, ptr, i64, i32, i8 }

@.str = private unnamed_addr constant [12 x i8] c"../ractor.c\00", align 1

; Function Attrs: nounwind sspstrong uwtable
define internal void @ASSERT_ractor_unlocking(ptr noundef %0) #0 {
  %2 = alloca ptr, align 8
  store ptr %0, ptr %2, align 8, !tbaa !7
  ret void
}

; Function Attrs: nounwind sspstrong uwtable
define internal void @ractor_unlock(ptr noundef %0, ptr noundef %1, i32 noundef %2) #0 {
  %4 = alloca ptr, align 8
  %5 = alloca ptr, align 8
  %6 = alloca i32, align 4
  store ptr %0, ptr %4, align 8, !tbaa !7
  store ptr %1, ptr %5, align 8, !tbaa !12
  store i32 %2, ptr %6, align 4, !tbaa !14
  %7 = load ptr, ptr %4, align 8, !tbaa !7
  call void @ASSERT_ractor_locking(ptr noundef %7)
  %8 = load ptr, ptr %4, align 8, !tbaa !7
  %9 = getelementptr inbounds nuw %struct.rb_ractor_struct, ptr %8, i32 0, i32 1
  %10 = getelementptr inbounds nuw %struct.rb_ractor_sync, ptr %9, i32 0, i32 0
  call void @rb_native_mutex_unlock(ptr noundef %10)
  ret void
}

; Function Attrs: nounwind sspstrong uwtable
define internal void @ractor_queue_advance(ptr noundef %0, ptr noundef %1) #0 {
  %3 = alloca ptr, align 8
  %4 = alloca ptr, align 8
  store ptr %0, ptr %3, align 8, !tbaa !7
  store ptr %1, ptr %4, align 8, !tbaa !93
  %5 = load ptr, ptr %3, align 8, !tbaa !7
  call void @ASSERT_ractor_locking(ptr noundef %5)
  %6 = load ptr, ptr %4, align 8, !tbaa !93
  %7 = getelementptr inbounds nuw %struct.rb_ractor_queue, ptr %6, i32 0, i32 5
  %8 = load i32, ptr %7, align 8, !tbaa !193
  %9 = icmp eq i32 %8, 0
  br i1 %9, label %10, label %29

10:                                               ; preds = %2
  %11 = load ptr, ptr %4, align 8, !tbaa !93
  %12 = getelementptr inbounds nuw %struct.rb_ractor_queue, ptr %11, i32 0, i32 2
  %13 = load i32, ptr %12, align 4, !tbaa !192
  %14 = add i32 %13, -1
  store i32 %14, ptr %12, align 4, !tbaa !192
  %15 = load ptr, ptr %4, align 8, !tbaa !93
  %16 = getelementptr inbounds nuw %struct.rb_ractor_queue, ptr %15, i32 0, i32 1
  %17 = load i32, ptr %16, align 8, !tbaa !220
  %18 = add i32 %17, 1
  %19 = load ptr, ptr %4, align 8, !tbaa !93
  %20 = getelementptr inbounds nuw %struct.rb_ractor_queue, ptr %19, i32 0, i32 3
  %21 = load i32, ptr %20, align 8, !tbaa !221
  %22 = srem i32 %18, %21
  %23 = load ptr, ptr %4, align 8, !tbaa !93
  %24 = getelementptr inbounds nuw %struct.rb_ractor_queue, ptr %23, i32 0, i32 1
  store i32 %22, ptr %24, align 8, !tbaa !220
  %25 = load ptr, ptr %4, align 8, !tbaa !93
  %26 = getelementptr inbounds nuw %struct.rb_ractor_queue, ptr %25, i32 0, i32 4
  %27 = load i32, ptr %26, align 4, !tbaa !191
  %28 = add i32 %27, 1
  store i32 %28, ptr %26, align 4, !tbaa !191
  br label %34

29:                                               ; preds = %2
  %30 = load ptr, ptr %3, align 8, !tbaa !7
  %31 = load ptr, ptr %4, align 8, !tbaa !93
  %32 = call ptr @ractor_queue_at(ptr noundef %30, ptr noundef %31, i32 noundef 0)
  %33 = getelementptr inbounds nuw %struct.rb_ractor_basket, ptr %32, i32 0, i32 0
  store i32 5, ptr %33, align 8, !tbaa !104
  br label %34

34:                                               ; preds = %29, %10
  ret void
}

; Function Attrs: inlinehint nounwind sspstrong uwtable
define internal zeroext i1 @basket_type_p(ptr noundef %0, i32 noundef %1) #4 {
  %3 = alloca ptr, align 8
  %4 = alloca i32, align 4
  store ptr %0, ptr %3, align 8, !tbaa !105
  store i32 %1, ptr %4, align 4, !tbaa !14
  %5 = load ptr, ptr %3, align 8, !tbaa !105
  %6 = getelementptr inbounds nuw %struct.rb_ractor_basket, ptr %5, i32 0, i32 0
  %7 = load i32, ptr %6, align 8, !tbaa !104
  %8 = load i32, ptr %4, align 4, !tbaa !14
  %9 = icmp eq i32 %7, %8
  ret i1 %9
}

; Function Attrs: nounwind sspstrong uwtable
define internal void @ASSERT_ractor_locking(ptr noundef %0) #0 {
  %2 = alloca ptr, align 8
  store ptr %0, ptr %2, align 8, !tbaa !7
  ret void
}

; Function Attrs: nounwind sspstrong uwtable
define internal void @ractor_lock(ptr noundef %0, ptr noundef %1, i32 noundef %2) #0 {
  %4 = alloca ptr, align 8
  %5 = alloca ptr, align 8
  %6 = alloca i32, align 4
  store ptr %0, ptr %4, align 8, !tbaa !7
  store ptr %1, ptr %5, align 8, !tbaa !12
  store i32 %2, ptr %6, align 4, !tbaa !14
  %7 = load ptr, ptr %4, align 8, !tbaa !7
  call void @ASSERT_ractor_unlocking(ptr noundef %7)
  %8 = load ptr, ptr %4, align 8, !tbaa !7
  %9 = getelementptr inbounds nuw %struct.rb_ractor_struct, ptr %8, i32 0, i32 1
  %10 = getelementptr inbounds nuw %struct.rb_ractor_sync, ptr %9, i32 0, i32 0
  call void @rb_native_mutex_lock(ptr noundef %10)
  ret void
}

; Function Attrs: nounwind sspstrong uwtable
define internal void @ractor_unlock_self(ptr noundef %0, ptr noundef %1, i32 noundef %2) #0 {
  %4 = alloca ptr, align 8
  %5 = alloca ptr, align 8
  %6 = alloca i32, align 4
  store ptr %0, ptr %4, align 8, !tbaa !7
  store ptr %1, ptr %5, align 8, !tbaa !12
  store i32 %2, ptr %6, align 4, !tbaa !14
  %7 = load ptr, ptr %4, align 8, !tbaa !7
  %8 = load ptr, ptr %5, align 8, !tbaa !12
  %9 = load i32, ptr %6, align 4, !tbaa !14
  call void @ractor_unlock(ptr noundef %7, ptr noundef %8, i32 noundef %9)
  ret void
}

; Function Attrs: nounwind sspstrong uwtable
define internal void @ractor_queue_compact(ptr noundef %0, ptr noundef %1) #0 {
  %3 = alloca ptr, align 8
  %4 = alloca ptr, align 8
  store ptr %0, ptr %3, align 8, !tbaa !7
  store ptr %1, ptr %4, align 8, !tbaa !93
  %5 = load ptr, ptr %3, align 8, !tbaa !7
  call void @ASSERT_ractor_locking(ptr noundef %5)
  br label %6

6:                                                ; preds = %18, %2
  %7 = load ptr, ptr %4, align 8, !tbaa !93
  %8 = getelementptr inbounds nuw %struct.rb_ractor_queue, ptr %7, i32 0, i32 2
  %9 = load i32, ptr %8, align 4, !tbaa !192
  %10 = icmp sgt i32 %9, 0
  br i1 %10, label %11, label %16

11:                                               ; preds = %6
  %12 = load ptr, ptr %3, align 8, !tbaa !7
  %13 = load ptr, ptr %4, align 8, !tbaa !93
  %14 = call ptr @ractor_queue_at(ptr noundef %12, ptr noundef %13, i32 noundef 0)
  %15 = call zeroext i1 @basket_type_p(ptr noundef %14, i32 noundef 5)
  br label %16

16:                                               ; preds = %11, %6
  %17 = phi i1 [ false, %6 ], [ %15, %11 ]
  br i1 %17, label %18, label %21

18:                                               ; preds = %16
  %19 = load ptr, ptr %3, align 8, !tbaa !7
  %20 = load ptr, ptr %4, align 8, !tbaa !93
  call void @ractor_queue_advance(ptr noundef %19, ptr noundef %20)
  br label %6, !llvm.loop !237

21:                                               ; preds = %16
  ret void
}

; Function Attrs: nounwind sspstrong uwtable
define internal void @ractor_queue_delete(ptr noundef %0, ptr noundef %1, ptr noundef %2) #0 {
  %4 = alloca ptr, align 8
  %5 = alloca ptr, align 8
  %6 = alloca ptr, align 8
  store ptr %0, ptr %4, align 8, !tbaa !7
  store ptr %1, ptr %5, align 8, !tbaa !93
  store ptr %2, ptr %6, align 8, !tbaa !105
  %7 = load ptr, ptr %6, align 8, !tbaa !105
  %8 = getelementptr inbounds nuw %struct.rb_ractor_basket, ptr %7, i32 0, i32 0
  store i32 5, ptr %8, align 8, !tbaa !104
  ret void
}

; Function Attrs: inlinehint nounwind sspstrong willreturn memory(none) uwtable
define internal zeroext i1 @RB_TEST(i64 noundef %0) #11 {
  %2 = alloca i64, align 8
  store i64 %0, ptr %2, align 8, !tbaa !16
  %3 = load i64, ptr %2, align 8, !tbaa !16
  %4 = and i64 %3, -5
  %5 = icmp ne i64 %4, 0
  ret i1 %5
}

; Function Attrs: nounwind sspstrong uwtable
define internal ptr @ractor_queue_at(ptr noundef %0, ptr noundef %1, i32 noundef %2) #0 {
  %4 = alloca ptr, align 8
  %5 = alloca ptr, align 8
  %6 = alloca i32, align 4
  store ptr %0, ptr %4, align 8, !tbaa !7
  store ptr %1, ptr %5, align 8, !tbaa !93
  store i32 %2, ptr %6, align 4, !tbaa !14
  %7 = load ptr, ptr %4, align 8, !tbaa !7
  %8 = icmp ne ptr %7, null
  br i1 %8, label %9, label %11

9:                                                ; preds = %3
  %10 = load ptr, ptr %4, align 8, !tbaa !7
  call void @ASSERT_ractor_locking(ptr noundef %10)
  br label %11

11:                                               ; preds = %9, %3
  %12 = load ptr, ptr %5, align 8, !tbaa !93
  %13 = getelementptr inbounds nuw %struct.rb_ractor_queue, ptr %12, i32 0, i32 0
  %14 = load ptr, ptr %13, align 8, !tbaa !219
  %15 = load ptr, ptr %5, align 8, !tbaa !93
  %16 = getelementptr inbounds nuw %struct.rb_ractor_queue, ptr %15, i32 0, i32 1
  %17 = load i32, ptr %16, align 8, !tbaa !220
  %18 = load i32, ptr %6, align 4, !tbaa !14
  %19 = add i32 %17, %18
  %20 = load ptr, ptr %5, align 8, !tbaa !93
  %21 = getelementptr inbounds nuw %struct.rb_ractor_queue, ptr %20, i32 0, i32 3
  %22 = load i32, ptr %21, align 8, !tbaa !221
  %23 = srem i32 %19, %22
  %24 = sext i32 %23 to i64
  %25 = getelementptr %struct.rb_ractor_basket, ptr %14, i64 %24
  ret ptr %25
}

; Function Attrs: nounwind sspstrong uwtable
define internal void @ractor_lock_self(ptr noundef %0, ptr noundef %1, i32 noundef %2) #0 {
  %4 = alloca ptr, align 8
  %5 = alloca ptr, align 8
  %6 = alloca i32, align 4
  store ptr %0, ptr %4, align 8, !tbaa !7
  store ptr %1, ptr %5, align 8, !tbaa !12
  store i32 %2, ptr %6, align 4, !tbaa !14
  %7 = load ptr, ptr %4, align 8, !tbaa !7
  %8 = load ptr, ptr %5, align 8, !tbaa !12
  %9 = load i32, ptr %6, align 4, !tbaa !14
  call void @ractor_lock(ptr noundef %7, ptr noundef %8, i32 noundef %9)
  ret void
}

; Function Attrs: nounwind sspstrong uwtable
define internal void @ractor_receive_if_lock(ptr noundef %0) #0 {
  %2 = alloca ptr, align 8
  %3 = alloca i64, align 8
  store ptr %0, ptr %2, align 8, !tbaa !7
  call void @llvm.lifetime.start.p0(i64 8, ptr %3) #16
  %4 = load ptr, ptr %2, align 8, !tbaa !7
  %5 = getelementptr inbounds nuw %struct.rb_ractor_struct, ptr %4, i32 0, i32 2
  %6 = load i64, ptr %5, align 8, !tbaa !213
  store i64 %6, ptr %3, align 8, !tbaa !16
  %7 = load i64, ptr %3, align 8, !tbaa !16
  %8 = icmp eq i64 %7, 0
  br i1 %8, label %9, label %13

9:                                                ; preds = %1
  %10 = call i64 @rb_mutex_new()
  %11 = load ptr, ptr %2, align 8, !tbaa !7
  %12 = getelementptr inbounds nuw %struct.rb_ractor_struct, ptr %11, i32 0, i32 2
  store i64 %10, ptr %12, align 8, !tbaa !213
  store i64 %10, ptr %3, align 8, !tbaa !16
  br label %13

13:                                               ; preds = %9, %1
  %14 = load i64, ptr %3, align 8, !tbaa !16
  %15 = call i64 @rb_mutex_lock(i64 noundef %14)
  call void @llvm.lifetime.end.p0(i64 8, ptr %3) #16
  ret void
}

; Function Attrs: nounwind sspstrong uwtable
define internal i64 @receive_if_body(i64 noundef %0) #0 {
  %2 = alloca i64, align 8
  %3 = alloca i64, align 8
  %4 = alloca ptr, align 8
  %5 = alloca i64, align 8
  %6 = alloca ptr, align 8
  %7 = alloca ptr, align 8
  %8 = alloca i32, align 4
  store i64 %0, ptr %3, align 8, !tbaa !16
  call void @llvm.lifetime.start.p0(i64 8, ptr %4) #16
  %9 = load i64, ptr %3, align 8, !tbaa !16
  %10 = inttoptr i64 %9 to ptr
  store ptr %10, ptr %4, align 8, !tbaa !330
  %11 = load ptr, ptr %4, align 8, !tbaa !330
  %12 = getelementptr inbounds nuw %struct.receive_block_data, ptr %11, i32 0, i32 0
  %13 = load ptr, ptr %12, align 8, !tbaa !195
  call void @ractor_receive_if_lock(ptr noundef %13)
  call void @llvm.lifetime.start.p0(i64 8, ptr %5) #16
  %14 = load ptr, ptr %4, align 8, !tbaa !330
  %15 = getelementptr inbounds nuw %struct.receive_block_data, ptr %14, i32 0, i32 2
  %16 = load i64, ptr %15, align 8, !tbaa !198
  %17 = call i64 @rb_yield(i64 noundef %16)
  store i64 %17, ptr %5, align 8, !tbaa !16
  call void @llvm.lifetime.start.p0(i64 8, ptr %6) #16
  %18 = load ptr, ptr %4, align 8, !tbaa !330
  %19 = getelementptr inbounds nuw %struct.receive_block_data, ptr %18, i32 0, i32 0
  %20 = load ptr, ptr %19, align 8, !tbaa !195
  store ptr %20, ptr %6, align 8, !tbaa !7
  %21 = load ptr, ptr %6, align 8, !tbaa !7
  call void @ractor_lock_self(ptr noundef %21, ptr noundef @.str, i32 noundef 816)
  call void @llvm.lifetime.start.p0(i64 8, ptr %7) #16
  %22 = load ptr, ptr %6, align 8, !tbaa !7
  %23 = load ptr, ptr %4, align 8, !tbaa !330
  %24 = getelementptr inbounds nuw %struct.receive_block_data, ptr %23, i32 0, i32 1
  %25 = load ptr, ptr %24, align 8, !tbaa !197
  %26 = load ptr, ptr %4, align 8, !tbaa !330
  %27 = getelementptr inbounds nuw %struct.receive_block_data, ptr %26, i32 0, i32 3
  %28 = load i32, ptr %27, align 8, !tbaa !199
  %29 = call ptr @ractor_queue_at(ptr noundef %22, ptr noundef %25, i32 noundef %28)
  store ptr %29, ptr %7, align 8, !tbaa !105
  %30 = load ptr, ptr %4, align 8, !tbaa !330
  %31 = getelementptr inbounds nuw %struct.receive_block_data, ptr %30, i32 0, i32 1
  %32 = load ptr, ptr %31, align 8, !tbaa !197
  %33 = getelementptr inbounds nuw %struct.rb_ractor_queue, ptr %32, i32 0, i32 5
  %34 = load i32, ptr %33, align 8, !tbaa !193
  %35 = add i32 %34, -1
  store i32 %35, ptr %33, align 8, !tbaa !193
  %36 = load i64, ptr %5, align 8, !tbaa !16
  %37 = call zeroext i1 @RB_TEST(i64 noundef %36) #29
  br i1 %37, label %38, label %48

38:                                               ; preds = %1
  %39 = load ptr, ptr %6, align 8, !tbaa !7
  %40 = load ptr, ptr %4, align 8, !tbaa !330
  %41 = getelementptr inbounds nuw %struct.receive_block_data, ptr %40, i32 0, i32 1
  %42 = load ptr, ptr %41, align 8, !tbaa !197
  %43 = load ptr, ptr %7, align 8, !tbaa !105
  call void @ractor_queue_delete(ptr noundef %39, ptr noundef %42, ptr noundef %43)
  %44 = load ptr, ptr %6, align 8, !tbaa !7
  %45 = load ptr, ptr %4, align 8, !tbaa !330
  %46 = getelementptr inbounds nuw %struct.receive_block_data, ptr %45, i32 0, i32 1
  %47 = load ptr, ptr %46, align 8, !tbaa !197
  call void @ractor_queue_compact(ptr noundef %44, ptr noundef %47)
  br label %51

48:                                               ; preds = %1
  %49 = load ptr, ptr %7, align 8, !tbaa !105
  %50 = getelementptr inbounds nuw %struct.rb_ractor_basket, ptr %49, i32 0, i32 0
  store i32 1, ptr %50, align 8, !tbaa !104
  br label %51

51:                                               ; preds = %48, %38
  call void @llvm.lifetime.end.p0(i64 8, ptr %7) #16
  %52 = load ptr, ptr %6, align 8, !tbaa !7
  call void @ractor_unlock_self(ptr noundef %52, ptr noundef @.str, i32 noundef 830)
  %53 = load ptr, ptr %4, align 8, !tbaa !330
  %54 = getelementptr inbounds nuw %struct.receive_block_data, ptr %53, i32 0, i32 4
  store i8 1, ptr %54, align 4, !tbaa !200
  %55 = load i64, ptr %5, align 8, !tbaa !16
  %56 = call zeroext i1 @RB_TEST(i64 noundef %55) #29
  br i1 %56, label %57, label %61

57:                                               ; preds = %51
  %58 = load ptr, ptr %4, align 8, !tbaa !330
  %59 = getelementptr inbounds nuw %struct.receive_block_data, ptr %58, i32 0, i32 2
  %60 = load i64, ptr %59, align 8, !tbaa !198
  store i64 %60, ptr %2, align 8
  store i32 1, ptr %8, align 4
  br label %62

61:                                               ; preds = %51
  store i64 36, ptr %2, align 8
  store i32 1, ptr %8, align 4
  br label %62

62:                                               ; preds = %61, %57
  call void @llvm.lifetime.end.p0(i64 8, ptr %6) #16
  call void @llvm.lifetime.end.p0(i64 8, ptr %5) #16
  call void @llvm.lifetime.end.p0(i64 8, ptr %4) #16
  %63 = load i64, ptr %2, align 8
  ret i64 %63
}