; Function Attrs: nounwind sspstrong uwtable
define internal i64 @receive_if_body(i64 noundef %0) #0 {
  %2 = inttoptr i64 %0 to ptr
  %3 = load ptr, ptr %2, align 8, !tbaa !207
  %4 = getelementptr inbounds nuw i8, ptr %3, i64 200
  %5 = load i64, ptr %4, align 8, !tbaa !116
  %6 = icmp eq i64 %5, 0
  br i1 %6, label %7, label %ractor_receive_if_lock.exit

7:                                                ; preds = %1
  %8 = tail call i64 @rb_mutex_new() #19
  store i64 %8, ptr %4, align 8, !tbaa !116
  br label %ractor_receive_if_lock.exit

ractor_receive_if_lock.exit:                      ; preds = %1, %7
  %.0.i = phi i64 [ %8, %7 ], [ %5, %1 ]
  %9 = tail call i64 @rb_mutex_lock(i64 noundef %.0.i) #19
  %10 = getelementptr inbounds nuw i8, ptr %2, i64 16
  %11 = load i64, ptr %10, align 8, !tbaa !211
  %12 = tail call i64 @rb_yield(i64 noundef %11) #19
  %13 = load ptr, ptr %2, align 8, !tbaa !207
  %14 = getelementptr inbounds nuw i8, ptr %13, i64 40
  tail call void @rb_native_mutex_lock(ptr noundef nonnull %14) #19
  %15 = getelementptr inbounds nuw i8, ptr %2, i64 8
  %16 = load ptr, ptr %15, align 8, !tbaa !210
  %17 = getelementptr inbounds nuw i8, ptr %2, i64 24
  %18 = load i32, ptr %17, align 8, !tbaa !212
  %19 = load ptr, ptr %16, align 8, !tbaa !88
  %20 = getelementptr inbounds nuw i8, ptr %16, i64 8
  %21 = load i32, ptr %20, align 8, !tbaa !87
  %22 = add i32 %21, %18
  %23 = getelementptr inbounds nuw i8, ptr %16, i64 16
  %24 = load i32, ptr %23, align 8, !tbaa !85
  %25 = srem i32 %22, %24
  %26 = sext i32 %25 to i64
  %27 = getelementptr %struct.rb_ractor_basket, ptr %19, i64 %26
  %28 = getelementptr inbounds nuw i8, ptr %16, i64 24
  %29 = load i32, ptr %28, align 8, !tbaa !108
  %30 = add i32 %29, -1
  store i32 %30, ptr %28, align 8, !tbaa !108
  %31 = and i64 %12, -5
  %.not = icmp eq i64 %31, 0
  br i1 %.not, label %ractor_queue_compact.exit.thread20, label %32

32:                                               ; preds = %ractor_receive_if_lock.exit
  store i32 5, ptr %27, align 8, !tbaa !100
  %33 = load ptr, ptr %15, align 8, !tbaa !210
  %34 = getelementptr inbounds nuw i8, ptr %33, i64 12
  %35 = load i32, ptr %34, align 4, !tbaa !86
  %36 = icmp sgt i32 %35, 0
  br i1 %36, label %.lr.ph.i, label %ractor_queue_compact.exit.thread

.lr.ph.i:                                         ; preds = %32
  %37 = getelementptr inbounds nuw i8, ptr %33, i64 8
  %38 = getelementptr inbounds nuw i8, ptr %33, i64 16
  %39 = getelementptr inbounds nuw i8, ptr %33, i64 24
  %40 = getelementptr inbounds nuw i8, ptr %33, i64 20
  br label %41

41:                                               ; preds = %ractor_queue_advance.exit.i, %.lr.ph.i
  %42 = phi i32 [ %35, %.lr.ph.i ], [ %60, %ractor_queue_advance.exit.i ]
  %43 = load ptr, ptr %33, align 8, !tbaa !88
  %44 = load i32, ptr %37, align 8, !tbaa !87
  %45 = load i32, ptr %38, align 8, !tbaa !85
  %46 = srem i32 %44, %45
  %47 = sext i32 %46 to i64
  %48 = getelementptr %struct.rb_ractor_basket, ptr %43, i64 %47
  %.val.i = load i32, ptr %48, align 8, !tbaa !100
  %49 = icmp eq i32 %.val.i, 5
  br i1 %49, label %50, label %ractor_queue_compact.exit.thread

50:                                               ; preds = %41
  %51 = load i32, ptr %39, align 8, !tbaa !108
  %52 = icmp eq i32 %51, 0
  br i1 %52, label %53, label %59

53:                                               ; preds = %50
  %54 = add nsw i32 %42, -1
  store i32 %54, ptr %34, align 4, !tbaa !86
  %55 = add i32 %44, 1
  %56 = srem i32 %55, %45
  store i32 %56, ptr %37, align 8, !tbaa !87
  %57 = load i32, ptr %40, align 4, !tbaa !109
  %58 = add i32 %57, 1
  store i32 %58, ptr %40, align 4, !tbaa !109
  br label %ractor_queue_advance.exit.i

59:                                               ; preds = %50
  store i32 5, ptr %48, align 8, !tbaa !100
  %.pre.i = load i32, ptr %34, align 4, !tbaa !86
  br label %ractor_queue_advance.exit.i

ractor_queue_advance.exit.i:                      ; preds = %59, %53
  %60 = phi i32 [ %54, %53 ], [ %.pre.i, %59 ]
  %61 = icmp sgt i32 %60, 0
  br i1 %61, label %41, label %ractor_queue_compact.exit.thread, !llvm.loop !110

ractor_queue_compact.exit.thread20:               ; preds = %ractor_receive_if_lock.exit
  store i32 1, ptr %27, align 8, !tbaa !100
  tail call void @rb_native_mutex_unlock(ptr noundef nonnull %14) #19
  %62 = getelementptr inbounds nuw i8, ptr %2, i64 28
  store i8 1, ptr %62, align 4, !tbaa !287
  br label %65

ractor_queue_compact.exit.thread:                 ; preds = %41, %ractor_queue_advance.exit.i, %32
  tail call void @rb_native_mutex_unlock(ptr noundef nonnull %14) #19
  %63 = getelementptr inbounds nuw i8, ptr %2, i64 28
  store i8 1, ptr %63, align 4, !tbaa !287
  %64 = load i64, ptr %10, align 8, !tbaa !211
  br label %65

65:                                               ; preds = %ractor_queue_compact.exit.thread20, %ractor_queue_compact.exit.thread
  %.0 = phi i64 [ %64, %ractor_queue_compact.exit.thread ], [ 36, %ractor_queue_compact.exit.thread20 ]
  ret i64 %.0
}